; Function Attrs: nounwind uwtable
define dso_local range(i64 0, 2) i64 @multirange_overleft_multirange(ptr noundef readonly captures(none) %0) local_unnamed_addr #0 {
  %2 = alloca %struct.RangeBound, align 8
  %3 = alloca %struct.RangeBound, align 8
  %4 = alloca %struct.RangeBound, align 8
  %5 = alloca %struct.RangeBound, align 8
  %6 = getelementptr inbounds nuw i8, ptr %0, i64 32
  %7 = load i64, ptr %6, align 8
  %8 = inttoptr i64 %7 to ptr
  %9 = tail call ptr @pg_detoast_datum(ptr noundef %8) #11
  %10 = getelementptr inbounds nuw i8, ptr %0, i64 48
  %11 = load i64, ptr %10, align 8
  %12 = inttoptr i64 %11 to ptr
  %13 = tail call ptr @pg_detoast_datum(ptr noundef %12) #11
  call void @llvm.lifetime.start.p0(i64 16, ptr nonnull %2) #11
  call void @llvm.lifetime.start.p0(i64 16, ptr nonnull %3) #11
  call void @llvm.lifetime.start.p0(i64 16, ptr nonnull %4) #11
  call void @llvm.lifetime.start.p0(i64 16, ptr nonnull %5) #11
  %14 = getelementptr inbounds nuw i8, ptr %9, i64 8
  %15 = load i32, ptr %14, align 4
  %16 = icmp eq i32 %15, 0
  br i1 %16, label %52, label %17

17:                                               ; preds = %1
  %18 = getelementptr inbounds nuw i8, ptr %13, i64 8
  %19 = load i32, ptr %18, align 4
  %20 = icmp eq i32 %19, 0
  br i1 %20, label %52, label %21

21:                                               ; preds = %17
  %22 = getelementptr inbounds nuw i8, ptr %9, i64 4
  %23 = load i32, ptr %22, align 4
  %24 = load ptr, ptr %0, align 8
  %25 = getelementptr inbounds nuw i8, ptr %24, i64 24
  %26 = load ptr, ptr %25, align 8
  %27 = icmp eq ptr %26, null
  br i1 %27, label %30, label %28

28:                                               ; preds = %21
  %29 = load i32, ptr %26, align 8
  %.not.i = icmp eq i32 %29, %23
  br i1 %.not.i, label %multirange_get_typcache.exit, label %30

30:                                               ; preds = %28, %21
  %31 = tail call ptr @lookup_type_cache(i32 noundef %23, i32 noundef 65536) #11
  %32 = getelementptr inbounds nuw i8, ptr %31, i64 440
  %33 = load ptr, ptr %32, align 8
  %34 = icmp eq ptr %33, null
  br i1 %34, label %35, label %38

35:                                               ; preds = %30
  %36 = tail call zeroext i1 @errstart_cold(i32 noundef 21, ptr noundef null) #13
  tail call void @llvm.assume(i1 %36)
  %37 = tail call i32 (ptr, ...) @errmsg_internal(ptr noundef nonnull @.str.9, i32 noundef %23) #11
  tail call void @errfinish(ptr noundef nonnull @.str.2, i32 noundef 557, ptr noundef nonnull @__func__.multirange_get_typcache) #11
  unreachable

38:                                               ; preds = %30
  %39 = load ptr, ptr %0, align 8
  %40 = getelementptr inbounds nuw i8, ptr %39, i64 24
  store ptr %31, ptr %40, align 8
  %.pre = load i32, ptr %14, align 4
  br label %multirange_get_typcache.exit

multirange_get_typcache.exit:                     ; preds = %28, %38
  %41 = phi i32 [ %.pre, %38 ], [ %15, %28 ]
  %.0.i = phi ptr [ %31, %38 ], [ %26, %28 ]
  %42 = getelementptr inbounds nuw i8, ptr %.0.i, i64 440
  %43 = load ptr, ptr %42, align 8
  %44 = add i32 %41, -1
  call void @multirange_get_bounds(ptr noundef %43, ptr noundef nonnull %9, i32 noundef %44, ptr noundef nonnull %2, ptr noundef nonnull %3)
  %45 = load ptr, ptr %42, align 8
  %46 = load i32, ptr %18, align 4
  %47 = add i32 %46, -1
  call void @multirange_get_bounds(ptr noundef %45, ptr noundef nonnull %13, i32 noundef %47, ptr noundef nonnull %4, ptr noundef nonnull %5)
  %48 = load ptr, ptr %42, align 8
  %49 = call i32 @range_cmp_bounds(ptr noundef %48, ptr noundef nonnull %3, ptr noundef nonnull %5) #11
  %50 = icmp slt i32 %49, 1
  %51 = zext i1 %50 to i64
  br label %52

52:                                               ; preds = %1, %17, %multirange_get_typcache.exit
  %.0 = phi i64 [ %51, %multirange_get_typcache.exit ], [ 0, %17 ], [ 0, %1 ]
  call void @llvm.lifetime.end.p0(i64 16, ptr nonnull %5) #11
  call void @llvm.lifetime.end.p0(i64 16, ptr nonnull %4) #11
  call void @llvm.lifetime.end.p0(i64 16, ptr nonnull %3) #11
  call void @llvm.lifetime.end.p0(i64 16, ptr nonnull %2) #11
  ret i64 %.0
}